; Function Attrs: mustprogress nofree norecurse nosync nounwind willreturn memory(argmem: readwrite) uwtable
define hidden void @_ZN3sls6pluginC2ERNS_7contextE(ptr noundef nonnull writeonly align 8 captures(none) dereferenceable(28) initializes((0, 24)) %0, ptr noundef nonnull align 8 dereferenceable(321) %1) unnamed_addr #3 align 2 {
  store ptr getelementptr inbounds nuw inrange(-16, 176) (i8, ptr @_ZTVN3sls6pluginE, i64 16), ptr %0, align 8, !tbaa !3
  %3 = getelementptr inbounds nuw i8, ptr %0, i64 8
  store ptr %1, ptr %3, align 8, !tbaa !6
  %4 = getelementptr inbounds nuw i8, ptr %0, i64 16
  %5 = load ptr, ptr %1, align 8, !tbaa !10
  store ptr %5, ptr %4, align 8, !tbaa !47
  ret void
}